target datalayout = "e-m:e-p270:32:32-p271:32:32-p272:64:64-i64:64-i128:128-f80:128-n8:16:32:64-S128"
target triple = "x86_64-pc-linux-gnu"

%struct.ident_t = type { i32, i32, i32, i32, ptr }

@1 = private unnamed_addr constant %struct.ident_t { i32 0, i32 2, i32 0, i32 22, ptr @0 }, align 8

; Function Attrs: mustprogress nounwind uwtable
define void @_ZN5faiss29hashtable_int64_to_int64_initEiPl(i32 noundef %0, ptr noundef %1) #2 {
  %3 = alloca i32, align 4
  %4 = alloca ptr, align 8
  %5 = alloca i64, align 8
  store i32 %0, ptr %3, align 4
  store ptr %1, ptr %4, align 8
  %6 = load i32, ptr %3, align 4
  %7 = zext i32 %6 to i64
  %8 = shl i64 1, %7
  store i64 %8, ptr %5, align 8
  call void (ptr, i32, ptr, ...) @__kmpc_fork_call(ptr @1, i32 2, ptr @_ZN5faiss29hashtable_int64_to_int64_initEiPl.omp_outlined, ptr %5, ptr %4)
  ret void
}