; Function Attrs: mustprogress nounwind uwtable
define void @_ZN5faiss29hashtable_int64_to_int64_initEiPl(i32 noundef %0, ptr noundef %1) local_unnamed_addr #15 {
  %3 = alloca ptr, align 8
  %4 = alloca i64, align 8
  store ptr %1, ptr %3, align 8
  %5 = zext nneg i32 %0 to i64
  %6 = shl nuw i64 1, %5
  store i64 %6, ptr %4, align 8
  call void (ptr, i32, ptr, ...) @__kmpc_fork_call(ptr nonnull @1, i32 2, ptr nonnull @_ZN5faiss29hashtable_int64_to_int64_initEiPl.omp_outlined, ptr nonnull %4, ptr nonnull %3)
  ret void
}